#include <math.h>
#include <stdio.h>
#include <stdlib.h>
#include <string.h>

int main(){
char m[34];
int n;
gets(m);
printf("x\n");
printf("s\n");
printf("a\n");
printf("c\n");

printf("no\n");
	return 0;
}